target datalayout = "e-m:e-p270:32:32-p271:32:32-p272:64:64-i64:64-i128:128-f80:128-n8:16:32:64-S128"
target triple = "x86_64-pc-linux-gnu"

%struct.graph_stack_t = type { ptr, i64, i64, i64 }

@stderr = external global ptr, align 8
@Gstack = internal global %struct.graph_stack_t zeroinitializer, align 8
@root = internal global ptr null, align 8
@G = internal global ptr null, align 8
@.str.32 = private unnamed_addr constant [20 x i8] c"realloc failed: %s\0A\00", align 1

; Function Attrs: inlinehint nounwind uwtable
define internal i32 @graph_stack_try_append(ptr noundef %0, ptr noundef %1) #5 {
  %3 = alloca i32, align 4
  %4 = alloca ptr, align 8
  %5 = alloca ptr, align 8
  %6 = alloca i64, align 8
  %7 = alloca i32, align 4
  %8 = alloca ptr, align 8
  %9 = alloca i64, align 8
  %10 = alloca i64, align 8
  %11 = alloca i64, align 8
  store ptr %0, ptr %4, align 8, !tbaa !29
  store ptr %1, ptr %5, align 8, !tbaa !11
  %12 = load ptr, ptr %4, align 8, !tbaa !29
  %13 = getelementptr inbounds nuw %struct.graph_stack_t, ptr %12, i32 0, i32 2
  %14 = load i64, ptr %13, align 8, !tbaa !59
  %15 = load ptr, ptr %4, align 8, !tbaa !29
  %16 = getelementptr inbounds nuw %struct.graph_stack_t, ptr %15, i32 0, i32 3
  %17 = load i64, ptr %16, align 8, !tbaa !60
  %18 = icmp eq i64 %14, %17
  br i1 %18, label %19, label %113

19:                                               ; preds = %2
  call void @llvm.lifetime.start.p0(i64 8, ptr %6) #13
  %20 = load ptr, ptr %4, align 8, !tbaa !29
  %21 = getelementptr inbounds nuw %struct.graph_stack_t, ptr %20, i32 0, i32 3
  %22 = load i64, ptr %21, align 8, !tbaa !60
  %23 = icmp eq i64 %22, 0
  br i1 %23, label %24, label %25

24:                                               ; preds = %19
  br label %30

25:                                               ; preds = %19
  %26 = load ptr, ptr %4, align 8, !tbaa !29
  %27 = getelementptr inbounds nuw %struct.graph_stack_t, ptr %26, i32 0, i32 3
  %28 = load i64, ptr %27, align 8, !tbaa !60
  %29 = mul i64 %28, 2
  br label %30

30:                                               ; preds = %25, %24
  %31 = phi i64 [ 1, %24 ], [ %29, %25 ]
  store i64 %31, ptr %6, align 8, !tbaa !26
  %32 = load i64, ptr %6, align 8, !tbaa !26
  %33 = udiv i64 -1, %32
  %34 = icmp ult i64 %33, 8
  br i1 %34, label %35, label %36

35:                                               ; preds = %30
  store i32 34, ptr %3, align 4
  store i32 1, ptr %7, align 4
  br label %110

36:                                               ; preds = %30
  call void @llvm.lifetime.start.p0(i64 8, ptr %8) #13
  %37 = load ptr, ptr %4, align 8, !tbaa !29
  %38 = getelementptr inbounds nuw %struct.graph_stack_t, ptr %37, i32 0, i32 0
  %39 = load ptr, ptr %38, align 8, !tbaa !31
  %40 = load i64, ptr %6, align 8, !tbaa !26
  %41 = mul i64 %40, 8
  %42 = call ptr @realloc(ptr noundef %39, i64 noundef %41) #17
  store ptr %42, ptr %8, align 8, !tbaa !61
  %43 = load ptr, ptr %8, align 8, !tbaa !61
  %44 = icmp eq ptr %43, null
  br i1 %44, label %45, label %46

45:                                               ; preds = %36
  store i32 12, ptr %3, align 4
  store i32 1, ptr %7, align 4
  br label %109

46:                                               ; preds = %36
  %47 = load ptr, ptr %8, align 8, !tbaa !61
  %48 = load ptr, ptr %4, align 8, !tbaa !29
  %49 = getelementptr inbounds nuw %struct.graph_stack_t, ptr %48, i32 0, i32 3
  %50 = load i64, ptr %49, align 8, !tbaa !60
  %51 = getelementptr inbounds nuw ptr, ptr %47, i64 %50
  %52 = load i64, ptr %6, align 8, !tbaa !26
  %53 = load ptr, ptr %4, align 8, !tbaa !29
  %54 = getelementptr inbounds nuw %struct.graph_stack_t, ptr %53, i32 0, i32 3
  %55 = load i64, ptr %54, align 8, !tbaa !60
  %56 = sub i64 %52, %55
  %57 = mul i64 %56, 8
  call void @llvm.memset.p0.i64(ptr align 8 %51, i8 0, i64 %57, i1 false)
  br label %58

58:                                               ; preds = %46
  br label %59

59:                                               ; preds = %58
  br label %60

60:                                               ; preds = %59
  %61 = load ptr, ptr %4, align 8, !tbaa !29
  %62 = getelementptr inbounds nuw %struct.graph_stack_t, ptr %61, i32 0, i32 1
  %63 = load i64, ptr %62, align 8, !tbaa !62
  %64 = load ptr, ptr %4, align 8, !tbaa !29
  %65 = getelementptr inbounds nuw %struct.graph_stack_t, ptr %64, i32 0, i32 2
  %66 = load i64, ptr %65, align 8, !tbaa !59
  %67 = add i64 %63, %66
  %68 = load ptr, ptr %4, align 8, !tbaa !29
  %69 = getelementptr inbounds nuw %struct.graph_stack_t, ptr %68, i32 0, i32 3
  %70 = load i64, ptr %69, align 8, !tbaa !60
  %71 = icmp ugt i64 %67, %70
  br i1 %71, label %72, label %102

72:                                               ; preds = %60
  call void @llvm.lifetime.start.p0(i64 8, ptr %9) #13
  %73 = load ptr, ptr %4, align 8, !tbaa !29
  %74 = getelementptr inbounds nuw %struct.graph_stack_t, ptr %73, i32 0, i32 3
  %75 = load i64, ptr %74, align 8, !tbaa !60
  %76 = load ptr, ptr %4, align 8, !tbaa !29
  %77 = getelementptr inbounds nuw %struct.graph_stack_t, ptr %76, i32 0, i32 1
  %78 = load i64, ptr %77, align 8, !tbaa !62
  %79 = sub i64 %75, %78
  store i64 %79, ptr %9, align 8, !tbaa !26
  call void @llvm.lifetime.start.p0(i64 8, ptr %10) #13
  %80 = load i64, ptr %6, align 8, !tbaa !26
  %81 = load i64, ptr %9, align 8, !tbaa !26
  %82 = sub i64 %80, %81
  store i64 %82, ptr %10, align 8, !tbaa !26
  br label %83

83:                                               ; preds = %72
  br label %84

84:                                               ; preds = %83
  br label %85

85:                                               ; preds = %84
  %86 = load ptr, ptr %8, align 8, !tbaa !61
  %87 = load i64, ptr %10, align 8, !tbaa !26
  %88 = getelementptr inbounds nuw ptr, ptr %86, i64 %87
  %89 = load ptr, ptr %8, align 8, !tbaa !61
  %90 = load ptr, ptr %4, align 8, !tbaa !29
  %91 = getelementptr inbounds nuw %struct.graph_stack_t, ptr %90, i32 0, i32 1
  %92 = load i64, ptr %91, align 8, !tbaa !62
  %93 = getelementptr inbounds nuw ptr, ptr %89, i64 %92
  %94 = load i64, ptr %9, align 8, !tbaa !26
  %95 = mul i64 %94, 8
  call void @llvm.memmove.p0.p0.i64(ptr align 8 %88, ptr align 8 %93, i64 %95, i1 false)
  br label %96

96:                                               ; preds = %85
  br label %97

97:                                               ; preds = %96
  br label %98

98:                                               ; preds = %97
  %99 = load i64, ptr %10, align 8, !tbaa !26
  %100 = load ptr, ptr %4, align 8, !tbaa !29
  %101 = getelementptr inbounds nuw %struct.graph_stack_t, ptr %100, i32 0, i32 1
  store i64 %99, ptr %101, align 8, !tbaa !62
  call void @llvm.lifetime.end.p0(i64 8, ptr %10) #13
  call void @llvm.lifetime.end.p0(i64 8, ptr %9) #13
  br label %102

102:                                              ; preds = %98, %60
  %103 = load ptr, ptr %8, align 8, !tbaa !61
  %104 = load ptr, ptr %4, align 8, !tbaa !29
  %105 = getelementptr inbounds nuw %struct.graph_stack_t, ptr %104, i32 0, i32 0
  store ptr %103, ptr %105, align 8, !tbaa !31
  %106 = load i64, ptr %6, align 8, !tbaa !26
  %107 = load ptr, ptr %4, align 8, !tbaa !29
  %108 = getelementptr inbounds nuw %struct.graph_stack_t, ptr %107, i32 0, i32 3
  store i64 %106, ptr %108, align 8, !tbaa !60
  store i32 0, ptr %7, align 4
  br label %109

109:                                              ; preds = %102, %45
  call void @llvm.lifetime.end.p0(i64 8, ptr %8) #13
  br label %110

110:                                              ; preds = %109, %35
  call void @llvm.lifetime.end.p0(i64 8, ptr %6) #13
  %111 = load i32, ptr %7, align 4
  switch i32 %111, label %140 [
    i32 0, label %112
    i32 1, label %138
  ]

112:                                              ; preds = %110
  br label %113

113:                                              ; preds = %112, %2
  call void @llvm.lifetime.start.p0(i64 8, ptr %11) #13
  %114 = load ptr, ptr %4, align 8, !tbaa !29
  %115 = getelementptr inbounds nuw %struct.graph_stack_t, ptr %114, i32 0, i32 1
  %116 = load i64, ptr %115, align 8, !tbaa !62
  %117 = load ptr, ptr %4, align 8, !tbaa !29
  %118 = getelementptr inbounds nuw %struct.graph_stack_t, ptr %117, i32 0, i32 2
  %119 = load i64, ptr %118, align 8, !tbaa !59
  %120 = add i64 %116, %119
  %121 = load ptr, ptr %4, align 8, !tbaa !29
  %122 = getelementptr inbounds nuw %struct.graph_stack_t, ptr %121, i32 0, i32 3
  %123 = load i64, ptr %122, align 8, !tbaa !60
  %124 = urem i64 %120, %123
  store i64 %124, ptr %11, align 8, !tbaa !26
  br label %125

125:                                              ; preds = %113
  br label %126

126:                                              ; preds = %125
  br label %127

127:                                              ; preds = %126
  %128 = load ptr, ptr %5, align 8, !tbaa !11
  %129 = load ptr, ptr %4, align 8, !tbaa !29
  %130 = getelementptr inbounds nuw %struct.graph_stack_t, ptr %129, i32 0, i32 0
  %131 = load ptr, ptr %130, align 8, !tbaa !31
  %132 = load i64, ptr %11, align 8, !tbaa !26
  %133 = getelementptr inbounds nuw ptr, ptr %131, i64 %132
  store ptr %128, ptr %133, align 8, !tbaa !11
  %134 = load ptr, ptr %4, align 8, !tbaa !29
  %135 = getelementptr inbounds nuw %struct.graph_stack_t, ptr %134, i32 0, i32 2
  %136 = load i64, ptr %135, align 8, !tbaa !59
  %137 = add i64 %136, 1
  store i64 %137, ptr %135, align 8, !tbaa !59
  store i32 0, ptr %3, align 4
  store i32 1, ptr %7, align 4
  call void @llvm.lifetime.end.p0(i64 8, ptr %11) #13
  br label %138

138:                                              ; preds = %127, %110
  %139 = load i32, ptr %3, align 4
  ret i32 %139

140:                                              ; preds = %110
  unreachable
}

; Function Attrs: inlinehint nounwind uwtable
define internal void @graph_stack_append(ptr noundef %0, ptr noundef %1) #5 {
  %3 = alloca ptr, align 8
  %4 = alloca ptr, align 8
  %5 = alloca i32, align 4
  store ptr %0, ptr %3, align 8, !tbaa !29
  store ptr %1, ptr %4, align 8, !tbaa !11
  call void @llvm.lifetime.start.p0(i64 4, ptr %5) #13
  %6 = load ptr, ptr %3, align 8, !tbaa !29
  %7 = load ptr, ptr %4, align 8, !tbaa !11
  %8 = call i32 @graph_stack_try_append(ptr noundef %6, ptr noundef %7)
  store i32 %8, ptr %5, align 4, !tbaa !4
  %9 = load i32, ptr %5, align 4, !tbaa !4
  %10 = icmp ne i32 %9, 0
  br i1 %10, label %11, label %16

11:                                               ; preds = %2
  %12 = load ptr, ptr @stderr, align 8, !tbaa !13
  %13 = load i32, ptr %5, align 4, !tbaa !4
  %14 = call ptr @strerror(i32 noundef %13) #13
  %15 = call i32 (ptr, ptr, ...) @fprintf(ptr noundef %12, ptr noundef @.str.32, ptr noundef %14) #13
  call void @graphviz_exit(i32 noundef 1) #14
  unreachable

16:                                               ; preds = %2
  call void @llvm.lifetime.end.p0(i64 4, ptr %5) #13
  ret void
}

; Function Attrs: inlinehint nounwind uwtable
define internal i64 @graph_stack_size(ptr noundef %0) #5 {
  %2 = alloca ptr, align 8
  store ptr %0, ptr %2, align 8, !tbaa !29
  %3 = load ptr, ptr %2, align 8, !tbaa !29
  %4 = getelementptr inbounds nuw %struct.graph_stack_t, ptr %3, i32 0, i32 2
  %5 = load i64, ptr %4, align 8, !tbaa !59
  ret i64 %5
}

; Function Attrs: inlinehint nounwind uwtable
define internal void @graph_stack_push_back(ptr noundef %0, ptr noundef %1) #5 {
  %3 = alloca ptr, align 8
  %4 = alloca ptr, align 8
  store ptr %0, ptr %3, align 8, !tbaa !29
  store ptr %1, ptr %4, align 8, !tbaa !11
  %5 = load ptr, ptr %3, align 8, !tbaa !29
  %6 = load ptr, ptr %4, align 8, !tbaa !11
  call void @graph_stack_append(ptr noundef %5, ptr noundef %6)
  ret void
}

; Function Attrs: inlinehint nounwind uwtable
define internal zeroext i1 @graph_stack_is_empty(ptr noundef %0) #5 {
  %2 = alloca ptr, align 8
  store ptr %0, ptr %2, align 8, !tbaa !29
  %3 = load ptr, ptr %2, align 8, !tbaa !29
  %4 = call i64 @graph_stack_size(ptr noundef %3)
  %5 = icmp eq i64 %4, 0
  ret i1 %5
}

; Function Attrs: nounwind uwtable
define internal void @push_subg(ptr noundef %0) #0 {
  %2 = alloca ptr, align 8
  store ptr %0, ptr %2, align 8, !tbaa !11
  %3 = call zeroext i1 @graph_stack_is_empty(ptr noundef @Gstack)
  br i1 %3, label %4, label %6

4:                                                ; preds = %1
  %5 = load ptr, ptr %2, align 8, !tbaa !11
  store ptr %5, ptr @root, align 8, !tbaa !11
  br label %6

6:                                                ; preds = %4, %1
  %7 = load ptr, ptr %2, align 8, !tbaa !11
  call void @graph_stack_push_back(ptr noundef @Gstack, ptr noundef %7)
  %8 = load ptr, ptr %2, align 8, !tbaa !11
  store ptr %8, ptr @G, align 8, !tbaa !11
  ret void
}