; Function Attrs: nounwind uwtable
define internal fastcc void @push_subg(ptr noundef %0) unnamed_addr #12 {
  %2 = load i64, ptr getelementptr inbounds nuw (i8, ptr @Gstack, i64 16), align 8, !tbaa !38
  %3 = icmp eq i64 %2, 0
  br i1 %3, label %4, label %5

4:                                                ; preds = %1
  store ptr %0, ptr @root, align 8, !tbaa !28
  br label %5

5:                                                ; preds = %4, %1
  %6 = load i64, ptr getelementptr inbounds nuw (i8, ptr @Gstack, i64 24), align 8, !tbaa !52
  %7 = icmp eq i64 %2, %6
  br i1 %7, label %8, label %._crit_edge.i.i.i

._crit_edge.i.i.i:                                ; preds = %5
  %.pre.i.i.i = load i64, ptr getelementptr inbounds nuw (i8, ptr @Gstack, i64 8), align 8, !tbaa !51
  %.pre4.i.i.i = load ptr, ptr @Gstack, align 8, !tbaa !34
  br label %graph_stack_push_back.exit

8:                                                ; preds = %5
  %9 = shl i64 %2, 1
  %spec.select.i.i.i = select i1 %3, i64 1, i64 %9
  %mul.ov.i.i.i = icmp ugt i64 %spec.select.i.i.i, 2305843009213693951
  br i1 %mul.ov.i.i.i, label %32, label %10

10:                                               ; preds = %8
  %11 = load ptr, ptr @Gstack, align 8, !tbaa !34
  %12 = shl nuw i64 %spec.select.i.i.i, 3
  %13 = tail call ptr @realloc(ptr noundef %11, i64 noundef %12) #29
  %14 = icmp eq ptr %13, null
  br i1 %14, label %32, label %15

15:                                               ; preds = %10
  %16 = load i64, ptr getelementptr inbounds nuw (i8, ptr @Gstack, i64 24), align 8, !tbaa !52
  %17 = getelementptr inbounds nuw ptr, ptr %13, i64 %16
  %18 = sub i64 %spec.select.i.i.i, %16
  %19 = shl i64 %18, 3
  tail call void @llvm.memset.p0.i64(ptr nonnull align 8 %17, i8 0, i64 %19, i1 false)
  %20 = load i64, ptr getelementptr inbounds nuw (i8, ptr @Gstack, i64 8), align 8, !tbaa !51
  %21 = load i64, ptr getelementptr inbounds nuw (i8, ptr @Gstack, i64 16), align 8, !tbaa !38
  %22 = add i64 %21, %20
  %23 = icmp ugt i64 %22, %16
  br i1 %23, label %24, label %30

24:                                               ; preds = %15
  %25 = sub i64 %16, %20
  %26 = sub i64 %spec.select.i.i.i, %25
  %27 = getelementptr inbounds nuw ptr, ptr %13, i64 %26
  %28 = getelementptr inbounds nuw ptr, ptr %13, i64 %20
  %29 = shl i64 %25, 3
  tail call void @llvm.memmove.p0.p0.i64(ptr nonnull align 8 %27, ptr nonnull align 8 %28, i64 %29, i1 false)
  store i64 %26, ptr getelementptr inbounds nuw (i8, ptr @Gstack, i64 8), align 8, !tbaa !51
  br label %30

30:                                               ; preds = %24, %15
  %31 = phi i64 [ %20, %15 ], [ %26, %24 ]
  store ptr %13, ptr @Gstack, align 8, !tbaa !34
  store i64 %spec.select.i.i.i, ptr getelementptr inbounds nuw (i8, ptr @Gstack, i64 24), align 8, !tbaa !52
  br label %graph_stack_push_back.exit

32:                                               ; preds = %10, %8
  %.2.i.ph.i.i = phi i32 [ 34, %8 ], [ 12, %10 ]
  %33 = load ptr, ptr @stderr, align 8, !tbaa !11
  %34 = tail call ptr @strerror(i32 noundef %.2.i.ph.i.i) #23
  %35 = tail call i32 (ptr, ptr, ...) @fprintf(ptr noundef %33, ptr noundef nonnull @.str.32, ptr noundef %34) #25
  tail call fastcc void @graphviz_exit(i32 noundef 1) #27
  unreachable

graph_stack_push_back.exit:                       ; preds = %._crit_edge.i.i.i, %30
  %36 = phi ptr [ %.pre4.i.i.i, %._crit_edge.i.i.i ], [ %13, %30 ]
  %37 = phi i64 [ %6, %._crit_edge.i.i.i ], [ %spec.select.i.i.i, %30 ]
  %38 = phi i64 [ %2, %._crit_edge.i.i.i ], [ %21, %30 ]
  %39 = phi i64 [ %.pre.i.i.i, %._crit_edge.i.i.i ], [ %31, %30 ]
  %40 = add i64 %39, %38
  %41 = urem i64 %40, %37
  %42 = getelementptr inbounds nuw ptr, ptr %36, i64 %41
  store ptr %0, ptr %42, align 8, !tbaa !28
  %43 = add i64 %38, 1
  store i64 %43, ptr getelementptr inbounds nuw (i8, ptr @Gstack, i64 16), align 8, !tbaa !38
  store ptr %0, ptr @G, align 8, !tbaa !28
  ret void
}